; Function Attrs: mustprogress uwtable
define noundef zeroext i1 @_ZN3g2o9VertexTag4readERSi(ptr noundef nonnull align 8 dereferenceable(160) %0, ptr noundef nonnull align 8 dereferenceable(16) %1) unnamed_addr #4 align 2 personality ptr @__gxx_personality_v0 {
  %3 = getelementptr inbounds nuw i8, ptr %0, i64 104
  %4 = tail call noundef nonnull align 8 dereferenceable(16) ptr @_ZStrsIcSt11char_traitsIcESaIcEERSt13basic_istreamIT_T0_ES7_RNSt7__cxx1112basic_stringIS4_S5_T1_EE(ptr noundef nonnull align 8 dereferenceable(16) %1, ptr noundef nonnull align 8 dereferenceable(32) %3)
  %5 = getelementptr inbounds nuw i8, ptr %0, i64 136
  %6 = tail call noundef nonnull align 8 dereferenceable(16) ptr @_ZNSi10_M_extractIfEERSiRT_(ptr noundef nonnull align 8 dereferenceable(16) %1, ptr noundef nonnull align 4 dereferenceable(4) %5)
  %7 = getelementptr inbounds nuw i8, ptr %0, i64 140
  %8 = tail call noundef nonnull align 8 dereferenceable(16) ptr @_ZNSi10_M_extractIfEERSiRT_(ptr noundef nonnull align 8 dereferenceable(16) %6, ptr noundef nonnull align 4 dereferenceable(4) %7)
  %9 = getelementptr inbounds nuw i8, ptr %0, i64 144
  %10 = tail call noundef nonnull align 8 dereferenceable(16) ptr @_ZNSi10_M_extractIfEERSiRT_(ptr noundef nonnull align 8 dereferenceable(16) %8, ptr noundef nonnull align 4 dereferenceable(4) %9)
  %11 = getelementptr inbounds nuw i8, ptr %0, i64 148
  %12 = tail call noundef nonnull align 8 dereferenceable(16) ptr @_ZNSi10_M_extractIfEERSiRT_(ptr noundef nonnull align 8 dereferenceable(16) %1, ptr noundef nonnull align 4 dereferenceable(4) %11)
  %13 = getelementptr inbounds nuw i8, ptr %0, i64 152
  %14 = tail call noundef nonnull align 8 dereferenceable(16) ptr @_ZNSi10_M_extractIfEERSiRT_(ptr noundef nonnull align 8 dereferenceable(16) %12, ptr noundef nonnull align 4 dereferenceable(4) %13)
  %15 = getelementptr inbounds nuw i8, ptr %0, i64 156
  %16 = tail call noundef nonnull align 8 dereferenceable(16) ptr @_ZNSi10_M_extractIfEERSiRT_(ptr noundef nonnull align 8 dereferenceable(16) %14, ptr noundef nonnull align 4 dereferenceable(4) %15)
  %17 = getelementptr inbounds nuw i8, ptr %0, i64 24
  %18 = tail call noundef nonnull align 8 dereferenceable(16) ptr @_ZNSi10_M_extractIdEERSiRT_(ptr noundef nonnull align 8 dereferenceable(16) %1, ptr noundef nonnull align 8 dereferenceable(8) %17)
  %19 = getelementptr inbounds nuw i8, ptr %0, i64 72
  %20 = tail call noundef nonnull align 8 dereferenceable(16) ptr @_ZStrsIcSt11char_traitsIcESaIcEERSt13basic_istreamIT_T0_ES7_RNSt7__cxx1112basic_stringIS4_S5_T1_EE(ptr noundef nonnull align 8 dereferenceable(16) %1, ptr noundef nonnull align 8 dereferenceable(32) %19)
  %21 = getelementptr inbounds nuw i8, ptr %0, i64 32
  %22 = tail call noundef nonnull align 8 dereferenceable(16) ptr @_ZNSi10_M_extractIdEERSiRT_(ptr noundef nonnull align 8 dereferenceable(16) %1, ptr noundef nonnull align 8 dereferenceable(8) %21)
  ret i1 true
}